ARM GAS  C:\Users\elij1\AppData\Local\Temp\ccO7lNqC.s 			page 1


   1              		.syntax unified
   2              		.cpu cortex-m3
   3              		.fpu softvfp
   4              		.eabi_attribute 20, 1
   5              		.eabi_attribute 21, 1
   6              		.eabi_attribute 23, 3
   7              		.eabi_attribute 24, 1
   8              		.eabi_attribute 25, 1
   9              		.eabi_attribute 26, 1
  10              		.eabi_attribute 30, 6
  11              		.eabi_attribute 34, 1
  12              		.eabi_attribute 18, 4
  13              		.thumb
  14              		.syntax unified
  15              		.file	"main.c"
  16              		.text
  17              	.Ltext0:
  18              		.cfi_sections	.debug_frame
  19              		.comm	DMA_1_Chan,1,1
  20              		.comm	DMA_1_TD,1,4
  21              		.global	DMAADCResultArray
  22              		.bss
  23              		.align	2
  24              		.type	DMAADCResultArray, %object
  25              		.size	DMAADCResultArray, 4
  26              	DMAADCResultArray:
  27 0000 00000000 		.space	4
  28              		.global	MEMCPYResultArray
  29              		.align	2
  30              		.type	MEMCPYResultArray, %object
  31              		.size	MEMCPYResultArray, 4
  32              	MEMCPYResultArray:
  33 0004 00000000 		.space	4
  34              		.global	APIFUNResultArray
  35              		.align	2
  36              		.type	APIFUNResultArray, %object
  37              		.size	APIFUNResultArray, 4
  38              	APIFUNResultArray:
  39 0008 00000000 		.space	4
  40              		.comm	DMADone,1,1
  41              		.section	.text.main,"ax",%progbits
  42              		.align	2
  43              		.global	main
  44              		.thumb
  45              		.thumb_func
  46              		.type	main, %function
  47              	main:
  48              	.LFB63:
  49              		.file 1 "main.c"
   1:main.c        **** /* ========================================
   2:main.c        ****  *
   3:main.c        ****  * Copyright YOUR COMPANY, THE YEAR
   4:main.c        ****  * All Rights Reserved
   5:main.c        ****  * UNPUBLISHED, LICENSED SOFTWARE.
   6:main.c        ****  *
   7:main.c        ****  * CONFIDENTIAL AND PROPRIETARY INFORMATION
   8:main.c        ****  * WHICH IS THE PROPERTY OF your company.
ARM GAS  C:\Users\elij1\AppData\Local\Temp\ccO7lNqC.s 			page 2


   9:main.c        ****  *
  10:main.c        ****  * ========================================
  11:main.c        **** */
  12:main.c        **** 
  13:main.c        **** #include <devices.h>
  14:main.c        **** 
  15:main.c        **** /*******************************************************************************
  16:main.c        **** * File: main.c
  17:main.c        **** *
  18:main.c        **** * Version: 3.0
  19:main.c        **** *
  20:main.c        **** * Description:
  21:main.c        **** *   This is a basic design source code.
  22:main.c        **** *
  23:main.c        **** ********************************************************************************/
  24:main.c        **** 
  25:main.c        **** /* Variable declarations for DMA_1 */
  26:main.c        **** uint8 DMA_1_Chan;
  27:main.c        **** uint8 DMA_1_TD[1];
  28:main.c        **** 
  29:main.c        **** 	/* Compare the values extracted from the ADC using DMA, memcpy and using the API */
  30:main.c        **** 	 int16 DMAADCResultArray[ADC_SAR_Seq_1_NUMBER_OF_CHANNELS] = {0};   // *** CHANGED FROM UINT16 ***
  31:main.c        **** 	 int16 MEMCPYResultArray[ADC_SAR_Seq_1_NUMBER_OF_CHANNELS] = {0};   // *** CHANGED FROM UINT16 ***
  32:main.c        **** 	 int16 APIFUNResultArray[ADC_SAR_Seq_1_NUMBER_OF_CHANNELS] = {0};   // *** CHANGED FROM UINT16 ***
  33:main.c        **** 
  34:main.c        **** 
  35:main.c        **** /* DMA Configuration for DMA_1 */
  36:main.c        **** #define DMA_BYTES_PER_BURST 2*ADC_SAR_Seq_1_NUMBER_OF_CHANNELS	//Each TD handles all channels, 1 16
  37:main.c        **** #define DMA_REQUEST_PER_BURST 1
  38:main.c        **** #define DMA_SRC_BASE (CYDEV_SRAM_BASE)	//Regular ADCs result is DMA'd from the Peripheral Spoke. Th
  39:main.c        **** #define DMA_DST_BASE (CYDEV_SRAM_BASE)
  40:main.c        **** 
  41:main.c        **** /* The number of samples of each channel to capture */
  42:main.c        **** #define NumRepsToCapture 100
  43:main.c        **** 
  44:main.c        **** /* Interrupt Flag */
  45:main.c        **** volatile uint8 DMADone;
  46:main.c        **** 
  47:main.c        **** /*******************************************************************************
  48:main.c        **** * Function Name: main
  49:main.c        **** ********************************************************************************
  50:main.c        **** * Summary:
  51:main.c        **** * Main function performs following functions:
  52:main.c        **** * 1: Start the clock
  53:main.c        **** * 2: Start the Timer
  54:main.c        **** * 3: Start the interrupts
  55:main.c        **** * 4: Start ADC DelSig and its interrupts
  56:main.c        **** * 5: Testing for sample available from ADC
  57:main.c        **** * 6: Storing the sample into the array
  58:main.c        **** * 7: Comparing the samples
  59:main.c        **** *
  60:main.c        **** * Parameters:
  61:main.c        **** *  None.
  62:main.c        **** *
  63:main.c        **** * Return:
  64:main.c        **** *  None.
  65:main.c        **** *
ARM GAS  C:\Users\elij1\AppData\Local\Temp\ccO7lNqC.s 			page 3


  66:main.c        **** *******************************************************************************/        
  67:main.c        **** 
  68:main.c        **** int main()
  69:main.c        **** {
  50              		.loc 1 69 0
  51              		.cfi_startproc
  52              		@ args = 0, pretend = 0, frame = 8
  53              		@ frame_needed = 1, uses_anonymous_args = 0
  54 0000 90B5     		push	{r4, r7, lr}
  55              		.cfi_def_cfa_offset 12
  56              		.cfi_offset 4, -12
  57              		.cfi_offset 7, -8
  58              		.cfi_offset 14, -4
  59 0002 83B0     		sub	sp, sp, #12
  60              		.cfi_def_cfa_offset 24
  61 0004 00AF     		add	r7, sp, #0
  62              		.cfi_def_cfa_register 7
  70:main.c        **** 	uint16 chan=0;
  63              		.loc 1 70 0
  64 0006 0023     		movs	r3, #0
  65 0008 FB80     		strh	r3, [r7, #6]	@ movhi
  71:main.c        ****     uint16 print_nmbr;
  72:main.c        **** 	
  73:main.c        **** 	DMADone = 0;	//When the TD completed the DMA transfer this flag is set by the ISR
  66              		.loc 1 73 0
  67 000a 3C4B     		ldr	r3, .L6
  68 000c 0022     		movs	r2, #0
  69 000e 1A70     		strb	r2, [r3]
  74:main.c        **** 	
  75:main.c        ****     /* Enable global interrupts */
  76:main.c        ****     CyGlobalIntEnable;
  70              		.loc 1 76 0
  71              		.syntax unified
  72              	@ 76 "main.c" 1
  73 0010 62B6     		CPSIE   i
  74              	@ 0 "" 2
  77:main.c        ****     
  78:main.c        **** 	//////////////////////////////
  79:main.c        **** 	// Configure the DMA
  80:main.c        **** 	//////////////////////////////
  81:main.c        ****     /* Initializing DMA_1 */
  82:main.c        ****     DMA_1_Chan = DMA_1_DmaInitialize(DMA_BYTES_PER_BURST, DMA_REQUEST_PER_BURST,
  75              		.loc 1 82 0
  76              		.thumb
  77              		.syntax unified
  78 0012 41F6FF73 		movw	r3, #8191
  79 0016 41F6FF72 		movw	r2, #8191
  80 001a 0121     		movs	r1, #1
  81 001c 0420     		movs	r0, #4
  82 001e FFF7FEFF 		bl	DMA_1_DmaInitialize
  83 0022 0346     		mov	r3, r0
  84 0024 1A46     		mov	r2, r3
  85 0026 364B     		ldr	r3, .L6+4
  86 0028 1A70     		strb	r2, [r3]
  83:main.c        ****                                      HI16(DMA_SRC_BASE),  HI16(DMA_DST_BASE));
  84:main.c        **** 
  85:main.c        **** 	/* Allocate a TD for each channel */
ARM GAS  C:\Users\elij1\AppData\Local\Temp\ccO7lNqC.s 			page 4


  86:main.c        **** 	DMA_1_TD[0] = CyDmaTdAllocate();
  87              		.loc 1 86 0
  88 002a FFF7FEFF 		bl	CyDmaTdAllocate
  89 002e 0346     		mov	r3, r0
  90 0030 1A46     		mov	r2, r3
  91 0032 344B     		ldr	r3, .L6+8
  92 0034 1A70     		strb	r2, [r3]
  87:main.c        **** 	
  88:main.c        **** 	//step through and setup each TD
  89:main.c        **** 	CyDmaTdSetConfiguration(DMA_1_TD[0], 
  93              		.loc 1 89 0
  94 0036 334B     		ldr	r3, .L6+8
  95 0038 1878     		ldrb	r0, [r3]	@ zero_extendqisi2
  96 003a 0223     		movs	r3, #2
  97 003c FE22     		movs	r2, #254
  98 003e 0421     		movs	r1, #4
  99 0040 FFF7FEFF 		bl	CyDmaTdSetConfiguration
  90:main.c        **** 							DMA_BYTES_PER_BURST,
  91:main.c        **** 							DMA_DISABLE_TD,
  92:main.c        **** 							DMA_1__TD_TERMOUT_EN | CY_DMA_TD_INC_DST_ADR );
  93:main.c        ****     
  94:main.c        ****     /* Configuring the TD address for the transfer. Sequencer ADC results are stored in ADC_SAR_Seq
  95:main.c        ****     CyDmaTdSetAddress(DMA_1_TD[0], LO16((uint32)(ADC_SAR_Seq_1_finalArray)), LO16((uint32)(DMAADCRe
 100              		.loc 1 95 0
 101 0044 2F4B     		ldr	r3, .L6+8
 102 0046 1B78     		ldrb	r3, [r3]	@ zero_extendqisi2
 103 0048 2F4A     		ldr	r2, .L6+12
 104 004a 91B2     		uxth	r1, r2
 105 004c 2F4A     		ldr	r2, .L6+16
 106 004e 92B2     		uxth	r2, r2
 107 0050 1846     		mov	r0, r3
 108 0052 FFF7FEFF 		bl	CyDmaTdSetAddress
  96:main.c        ****     
  97:main.c        ****     /* Setting initial TD */
  98:main.c        ****     CyDmaChSetInitialTd(DMA_1_Chan, DMA_1_TD[0]);
 109              		.loc 1 98 0
 110 0056 2A4B     		ldr	r3, .L6+4
 111 0058 1A78     		ldrb	r2, [r3]	@ zero_extendqisi2
 112 005a 2A4B     		ldr	r3, .L6+8
 113 005c 1B78     		ldrb	r3, [r3]	@ zero_extendqisi2
 114 005e 1946     		mov	r1, r3
 115 0060 1046     		mov	r0, r2
 116 0062 FFF7FEFF 		bl	CyDmaChSetInitialTd
  99:main.c        **** 
 100:main.c        **** 	//////////////////////////
 101:main.c        **** 	// Start Components
 102:main.c        **** 	//////////////////////////
 103:main.c        **** 	
 104:main.c        **** 	/* ISR Start */
 105:main.c        **** 	isr_1_Start();
 117              		.loc 1 105 0
 118 0066 FFF7FEFF 		bl	isr_1_Start
 106:main.c        ****     // isr_1_StartEx(isr_1);
 107:main.c        ****     //LCD_Start();
 108:main.c        **** 	
 109:main.c        ****     /* Enable the DMA channel */
 110:main.c        ****     CyDmaChEnable(DMA_1_Chan, 1);
ARM GAS  C:\Users\elij1\AppData\Local\Temp\ccO7lNqC.s 			page 5


 119              		.loc 1 110 0
 120 006a 254B     		ldr	r3, .L6+4
 121 006c 1B78     		ldrb	r3, [r3]	@ zero_extendqisi2
 122 006e 0121     		movs	r1, #1
 123 0070 1846     		mov	r0, r3
 124 0072 FFF7FEFF 		bl	CyDmaChEnable
 111:main.c        **** 
 112:main.c        **** 	/* Start the ADC */
 113:main.c        ****     ADC_SAR_Seq_1_Start();
 125              		.loc 1 113 0
 126 0076 FFF7FEFF 		bl	ADC_SAR_Seq_1_Start
 114:main.c        **** 	ADC_SAR_Seq_1_IRQ_Disable();	//we're not using the internal interrupt
 127              		.loc 1 114 0
 128 007a FFF7FEFF 		bl	ADC_SAR_Seq_1_IRQ_Disable
 115:main.c        **** 	ADC_SAR_Seq_1_StartConvert();
 129              		.loc 1 115 0
 130 007e FFF7FEFF 		bl	ADC_SAR_Seq_1_StartConvert
 116:main.c        **** 	CyDelay(1000);	//give the ADC time to settle
 131              		.loc 1 116 0
 132 0082 4FF47A70 		mov	r0, #1000
 133 0086 FFF7FEFF 		bl	CyDelay
 134              	.L5:
 117:main.c        **** 	
 118:main.c        ****     for(;;) {
 119:main.c        **** 		// Capture the requested data...the DMADone flag will set when complete
 120:main.c        **** 		if(DMADone == 1)
 135              		.loc 1 120 0
 136 008a 1C4B     		ldr	r3, .L6
 137 008c 1B78     		ldrb	r3, [r3]
 138 008e DBB2     		uxtb	r3, r3
 139 0090 012B     		cmp	r3, #1
 140 0092 FAD1     		bne	.L5
 121:main.c        **** 		{
 122:main.c        **** 			//reset the DMA done flag
 123:main.c        **** 			DMADone = 0;
 141              		.loc 1 123 0
 142 0094 194B     		ldr	r3, .L6
 143 0096 0022     		movs	r2, #0
 144 0098 1A70     		strb	r2, [r3]
 124:main.c        ****             ADC_SAR_Seq_1_StopConvert();
 145              		.loc 1 124 0
 146 009a FFF7FEFF 		bl	ADC_SAR_Seq_1_StopConvert
 125:main.c        **** 			
 126:main.c        **** 			//////////////////////////////////////////////////// 
 127:main.c        **** 			// Grab the result values manually for comparison:
 128:main.c        **** 			////////////////////////////////////////////////////
 129:main.c        **** 			
 130:main.c        **** 			// USING THE API
 131:main.c        **** 			/* Channel results are saved in reverse order in the results array. Store them so they appear in
 132:main.c        **** //            if (ADC_SAR_Seq_1_IsEndConversion(ADC_SAR_Seq_1_WAIT_FOR_RESULT))
 133:main.c        **** //            {
 134:main.c        **** 			for(chan = 0; chan < ADC_SAR_Seq_1_NUMBER_OF_CHANNELS; chan++)
 147              		.loc 1 134 0
 148 009e 0023     		movs	r3, #0
 149 00a0 FB80     		strh	r3, [r7, #6]	@ movhi
 150 00a2 13E0     		b	.L3
 151              	.L4:
ARM GAS  C:\Users\elij1\AppData\Local\Temp\ccO7lNqC.s 			page 6


 135:main.c        **** 			{
 136:main.c        ****                 
 137:main.c        **** 				APIFUNResultArray[chan] = ADC_SAR_Seq_1_CountsTo_mVolts(ADC_SAR_Seq_1_GetResult16(ADC_SAR_Seq_1
 152              		.loc 1 137 0 discriminator 3
 153 00a4 FC88     		ldrh	r4, [r7, #6]
 154 00a6 FB88     		ldrh	r3, [r7, #6]	@ movhi
 155 00a8 C3F10103 		rsb	r3, r3, #1
 156 00ac 9BB2     		uxth	r3, r3
 157 00ae 1846     		mov	r0, r3
 158 00b0 FFF7FEFF 		bl	ADC_SAR_Seq_1_GetResult16
 159 00b4 0346     		mov	r3, r0
 160 00b6 1846     		mov	r0, r3
 161 00b8 FFF7FEFF 		bl	ADC_SAR_Seq_1_CountsTo_mVolts
 162 00bc 0346     		mov	r3, r0
 163 00be 1AB2     		sxth	r2, r3
 164 00c0 134B     		ldr	r3, .L6+20
 165 00c2 23F81420 		strh	r2, [r3, r4, lsl #1]	@ movhi
 134:main.c        **** 			{
 166              		.loc 1 134 0 discriminator 3
 167 00c6 FB88     		ldrh	r3, [r7, #6]
 168 00c8 0133     		adds	r3, r3, #1
 169 00ca FB80     		strh	r3, [r7, #6]	@ movhi
 170              	.L3:
 134:main.c        **** 			{
 171              		.loc 1 134 0 is_stmt 0 discriminator 1
 172 00cc FB88     		ldrh	r3, [r7, #6]
 173 00ce 012B     		cmp	r3, #1
 174 00d0 E8D9     		bls	.L4
 138:main.c        **** 			}
 139:main.c        **** //            }
 140:main.c        **** 
 141:main.c        **** 			// USING MEMCPY
 142:main.c        **** /*
 143:main.c        ****  Jerry says "Why use the following line? We already have the result of the conversion in APIFUNResu
 144:main.c        ****     It probably won't work anyway because the sar's finalArray is probably already cleared by the G
 145:main.c        **** 			memcpy(MEMCPYResultArray,ADC_SAR_Seq_1_finalArray,ADC_SAR_Seq_1_NUMBER_OF_CHANNELS*sizeof(uint16
 146:main.c        ****     INSTEAD, use the following line to move data to a different array.
 147:main.c        ****             
 148:main.c        ****     NOTE: the ISR HAS BEEN MOVED to the eoc of the SAR. By the time you get to this line of code, t
 149:main.c        ****     Now that we have Read the conversion results we have the lesure of doing whatever we want with 
 150:main.c        **** */
 151:main.c        **** 			memcpy(MEMCPYResultArray, APIFUNResultArray, ADC_SAR_Seq_1_NUMBER_OF_CHANNELS*sizeof(uint16));
 175              		.loc 1 151 0 is_stmt 1
 176 00d2 0F4B     		ldr	r3, .L6+20
 177 00d4 1B68     		ldr	r3, [r3]
 178 00d6 0F4A     		ldr	r2, .L6+24
 179 00d8 1360     		str	r3, [r2]
 152:main.c        ****             
 153:main.c        **** //  And if your want, do it again to move it to an offset from the MEMCPYResultArray -- say 12 byte
 154:main.c        **** //  That is, move the APIFUNResultArray anywhere you want in SRAM.
 155:main.c        **** //  NOTE: We moved all the arrays out of main{} into global variables and removed the "static" clas
 156:main.c        **** //       Now they are mapped into high SRAM as you can see in the Results Tab under Mux_SAR_ADC_Tes
 157:main.c        ****             
 158:main.c        ****                     /* ***  First line of LCD Screen - DO ANYTHING YOU WANT WITH THIS ARRAY  */
 159:main.c        ****             //LCD_Position(0, 0); CyDelay(10);  LCD_PrintString("               ");
 160:main.c        ****             //LCD_Position(0, 0);
 161:main.c        ****             print_nmbr = MEMCPYResultArray[0];
ARM GAS  C:\Users\elij1\AppData\Local\Temp\ccO7lNqC.s 			page 7


 180              		.loc 1 161 0
 181 00da 0E4B     		ldr	r3, .L6+24
 182 00dc B3F90030 		ldrsh	r3, [r3]
 183 00e0 BB80     		strh	r3, [r7, #4]	@ movhi
 162:main.c        ****             //LCD_PrintNumber(print_nmbr);
 163:main.c        ****             //LCD_Position(0, 6);
 164:main.c        ****             print_nmbr = MEMCPYResultArray[1];
 184              		.loc 1 164 0
 185 00e2 0C4B     		ldr	r3, .L6+24
 186 00e4 B3F90230 		ldrsh	r3, [r3, #2]
 187 00e8 BB80     		strh	r3, [r7, #4]	@ movhi
 165:main.c        ****             //LCD_PrintNumber(print_nmbr);
 166:main.c        ****             //LCD_Position(0, 11);
 167:main.c        ****            //print_nmbr = MEMCPYResultArray[2];
 168:main.c        ****             //LCD_PrintNumber(print_nmbr);
 169:main.c        **** 
 170:main.c        ****                     /* ***  Second line of LCD Screen - ANALOG INPUT  */
 171:main.c        ****             //LCD_Position(1, 0); CyDelay(10);  LCD_PrintString("               ");
 172:main.c        ****             //LCD_Position(1, 0);
 173:main.c        ****            //print_nmbr = APIFUNResultArray[3];
 174:main.c        ****             //LCD_PrintNumber(print_nmbr);
 175:main.c        ****             //LCD_Position(1, 6);
 176:main.c        ****            //print_nmbr = APIFUNResultArray[3];
 177:main.c        ****             //LCD_PrintNumber(print_nmbr);
 178:main.c        ****             //LCD_Position(1, 11);
 179:main.c        ****            //print_nmbr = APIFUNResultArray[4]; 
 180:main.c        ****             //LCD_PrintNumber(print_nmbr);
 181:main.c        **** 
 182:main.c        **** 			
 183:main.c        **** 			//////////////////////////////////////////////////////
 184:main.c        **** 			// Put a breakpoint at the next line so that the values in
 185:main.c        **** 			// the result arrays can be compared.
 186:main.c        **** 			//////////////////////////////////////////////////////
 187:main.c        **** 			
 188:main.c        **** 			/* Enable the DMA channel again */
 189:main.c        ****     		CyDmaChEnable(DMA_1_Chan, 1);
 188              		.loc 1 189 0
 189 00ea 054B     		ldr	r3, .L6+4
 190 00ec 1B78     		ldrb	r3, [r3]	@ zero_extendqisi2
 191 00ee 0121     		movs	r1, #1
 192 00f0 1846     		mov	r0, r3
 193 00f2 FFF7FEFF 		bl	CyDmaChEnable
 190:main.c        ****             ADC_SAR_Seq_1_StartConvert();   // Let's go another round
 194              		.loc 1 190 0
 195 00f6 FFF7FEFF 		bl	ADC_SAR_Seq_1_StartConvert
 191:main.c        **** 		}
 192:main.c        **** 	}
 196              		.loc 1 192 0
 197 00fa C6E7     		b	.L5
 198              	.L7:
 199              		.align	2
 200              	.L6:
 201 00fc 00000000 		.word	DMADone
 202 0100 00000000 		.word	DMA_1_Chan
 203 0104 00000000 		.word	DMA_1_TD
 204 0108 00000000 		.word	ADC_SAR_Seq_1_finalArray
 205 010c 00000000 		.word	DMAADCResultArray
ARM GAS  C:\Users\elij1\AppData\Local\Temp\ccO7lNqC.s 			page 8


 206 0110 00000000 		.word	APIFUNResultArray
 207 0114 00000000 		.word	MEMCPYResultArray
 208              		.cfi_endproc
 209              	.LFE63:
 210              		.size	main, .-main
 211              		.text
 212              	.Letext0:
 213              		.file 2 "c:\\program files (x86)\\cypress\\psoc creator\\4.4\\psoc creator\\import\\gnu\\arm\\5.4.
 214              		.file 3 "c:\\program files (x86)\\cypress\\psoc creator\\4.4\\psoc creator\\import\\gnu\\arm\\5.4.
 215              		.file 4 "Generated_Source\\PSoC5/cytypes.h"
 216              		.file 5 "Generated_Source\\PSoC5/ADC_SAR_Seq_1.h"
 217              		.file 6 "Generated_Source\\PSoC5/core_cm3.h"