ARM GAS  C:\Users\Jerald\AppData\Local\Temp\ccNuqD00.s 			page 1


   1              		.syntax unified
   2              		.cpu cortex-m3
   3              		.fpu softvfp
   4              		.eabi_attribute 20, 1
   5              		.eabi_attribute 21, 1
   6              		.eabi_attribute 23, 3
   7              		.eabi_attribute 24, 1
   8              		.eabi_attribute 25, 1
   9              		.eabi_attribute 26, 1
  10              		.eabi_attribute 30, 6
  11              		.eabi_attribute 34, 1
  12              		.eabi_attribute 18, 4
  13              		.thumb
  14              		.file	"main.c"
  15              		.text
  16              	.Ltext0:
  17              		.cfi_sections	.debug_frame
  18              		.comm	DMA_1_Chan,1,1
  19              		.comm	DMA_1_TD,1,4
  20              		.global	DMAADCResultArray
  21              		.bss
  22              		.align	2
  23              		.type	DMAADCResultArray, %object
  24              		.size	DMAADCResultArray, 12
  25              	DMAADCResultArray:
  26 0000 00000000 		.space	12
  26      00000000 
  26      00000000 
  27              		.global	MEMCPYResultArray
  28              		.align	2
  29              		.type	MEMCPYResultArray, %object
  30              		.size	MEMCPYResultArray, 12
  31              	MEMCPYResultArray:
  32 000c 00000000 		.space	12
  32      00000000 
  32      00000000 
  33              		.global	APIFUNResultArray
  34              		.align	2
  35              		.type	APIFUNResultArray, %object
  36              		.size	APIFUNResultArray, 12
  37              	APIFUNResultArray:
  38 0018 00000000 		.space	12
  38      00000000 
  38      00000000 
  39              		.comm	DMADone,1,1
  40              		.section	.rodata
  41              		.align	2
  42              	.LC0:
  43 0000 20202020 		.ascii	"               \000"
  43      20202020 
  43      20202020 
  43      20202000 
  44              		.section	.text.main,"ax",%progbits
  45              		.align	2
  46              		.global	main
  47              		.thumb
  48              		.thumb_func
ARM GAS  C:\Users\Jerald\AppData\Local\Temp\ccNuqD00.s 			page 2


  49              		.type	main, %function
  50              	main:
  51              	.LFB56:
  52              		.file 1 ".\\main.c"
   1:.\main.c      **** /* ========================================
   2:.\main.c      ****  *
   3:.\main.c      ****  * Copyright YOUR COMPANY, THE YEAR
   4:.\main.c      ****  * All Rights Reserved
   5:.\main.c      ****  * UNPUBLISHED, LICENSED SOFTWARE.
   6:.\main.c      ****  *
   7:.\main.c      ****  * CONFIDENTIAL AND PROPRIETARY INFORMATION
   8:.\main.c      ****  * WHICH IS THE PROPERTY OF your company.
   9:.\main.c      ****  *
  10:.\main.c      ****  * ========================================
  11:.\main.c      **** */
  12:.\main.c      **** 
  13:.\main.c      **** #include <devices.h>
  14:.\main.c      **** 
  15:.\main.c      **** /*******************************************************************************
  16:.\main.c      **** * File: main.c
  17:.\main.c      **** *
  18:.\main.c      **** * Version: 3.0
  19:.\main.c      **** *
  20:.\main.c      **** * Description:
  21:.\main.c      **** *   This is a basic design source code.
  22:.\main.c      **** *
  23:.\main.c      **** ********************************************************************************/
  24:.\main.c      **** 
  25:.\main.c      **** /* Variable declarations for DMA_1 */
  26:.\main.c      **** uint8 DMA_1_Chan;
  27:.\main.c      **** uint8 DMA_1_TD[1];
  28:.\main.c      **** 
  29:.\main.c      **** 	/* Compare the values extracted from the ADC using DMA, memcpy and using the API */
  30:.\main.c      **** 	 int16 DMAADCResultArray[ADC_SAR_Seq_1_NUMBER_OF_CHANNELS] = {0};   // *** CHANGED FROM UINT16 ***
  31:.\main.c      **** 	 int16 MEMCPYResultArray[ADC_SAR_Seq_1_NUMBER_OF_CHANNELS] = {0};   // *** CHANGED FROM UINT16 ***
  32:.\main.c      **** 	 int16 APIFUNResultArray[ADC_SAR_Seq_1_NUMBER_OF_CHANNELS] = {0};   // *** CHANGED FROM UINT16 ***
  33:.\main.c      **** 
  34:.\main.c      **** 
  35:.\main.c      **** /* DMA Configuration for DMA_1 */
  36:.\main.c      **** #define DMA_BYTES_PER_BURST 2*ADC_SAR_Seq_1_NUMBER_OF_CHANNELS	//Each TD handles all channels, 1 16
  37:.\main.c      **** #define DMA_REQUEST_PER_BURST 1
  38:.\main.c      **** #define DMA_SRC_BASE (CYDEV_SRAM_BASE)	//Regular ADCs result is DMA'd from the Peripheral Spoke. Th
  39:.\main.c      **** #define DMA_DST_BASE (CYDEV_SRAM_BASE)
  40:.\main.c      **** 
  41:.\main.c      **** /* The number of samples of each channel to capture */
  42:.\main.c      **** #define NumRepsToCapture 100
  43:.\main.c      **** 
  44:.\main.c      **** /* Interrupt Flag */
  45:.\main.c      **** volatile uint8 DMADone;
  46:.\main.c      **** 
  47:.\main.c      **** /*******************************************************************************
  48:.\main.c      **** * Function Name: main
  49:.\main.c      **** ********************************************************************************
  50:.\main.c      **** * Summary:
  51:.\main.c      **** * Main function performs following functions:
  52:.\main.c      **** * 1: Start the clock
  53:.\main.c      **** * 2: Start the Timer
ARM GAS  C:\Users\Jerald\AppData\Local\Temp\ccNuqD00.s 			page 3


  54:.\main.c      **** * 3: Start the interrupts
  55:.\main.c      **** * 4: Start ADC DelSig and its interrupts
  56:.\main.c      **** * 5: Testing for sample available from ADC
  57:.\main.c      **** * 6: Storing the sample into the array
  58:.\main.c      **** * 7: Comparing the samples
  59:.\main.c      **** *
  60:.\main.c      **** * Parameters:
  61:.\main.c      **** *  None.
  62:.\main.c      **** *
  63:.\main.c      **** * Return:
  64:.\main.c      **** *  None.
  65:.\main.c      **** *
  66:.\main.c      **** *******************************************************************************/        
  67:.\main.c      **** 
  68:.\main.c      **** int main()
  69:.\main.c      **** {
  53              		.loc 1 69 0
  54              		.cfi_startproc
  55              		@ args = 0, pretend = 0, frame = 8
  56              		@ frame_needed = 1, uses_anonymous_args = 0
  57 0000 90B5     		push	{r4, r7, lr}
  58              	.LCFI0:
  59              		.cfi_def_cfa_offset 12
  60              		.cfi_offset 4, -12
  61              		.cfi_offset 7, -8
  62              		.cfi_offset 14, -4
  63 0002 83B0     		sub	sp, sp, #12
  64              	.LCFI1:
  65              		.cfi_def_cfa_offset 24
  66 0004 00AF     		add	r7, sp, #0
  67              	.LCFI2:
  68              		.cfi_def_cfa_register 7
  70:.\main.c      **** 	uint16 chan=0;
  69              		.loc 1 70 0
  70 0006 4FF00003 		mov	r3, #0
  71 000a FB80     		strh	r3, [r7, #6]	@ movhi
  71:.\main.c      ****     uint16 print_nmbr;
  72:.\main.c      **** 	
  73:.\main.c      **** 	DMADone = 0;	//When the TD completed the DMA transfer this flag is set by the ISR
  72              		.loc 1 73 0
  73 000c 40F20003 		movw	r3, #:lower16:DMADone
  74 0010 C0F20003 		movt	r3, #:upper16:DMADone
  75 0014 4FF00002 		mov	r2, #0
  76 0018 1A70     		strb	r2, [r3, #0]
  74:.\main.c      **** 	
  75:.\main.c      ****     /* Enable global interrupts */
  76:.\main.c      ****     CyGlobalIntEnable;
  77              		.loc 1 76 0
  78              	@ 76 ".\main.c" 1
  79 001a 62B6     		CPSIE   i
  80              	@ 0 "" 2
  77:.\main.c      ****     
  78:.\main.c      **** 	//////////////////////////////
  79:.\main.c      **** 	// Configure the DMA
  80:.\main.c      **** 	//////////////////////////////
  81:.\main.c      ****     /* Initializing DMA_1 */
  82:.\main.c      ****     DMA_1_Chan = DMA_1_DmaInitialize(DMA_BYTES_PER_BURST, DMA_REQUEST_PER_BURST,
ARM GAS  C:\Users\Jerald\AppData\Local\Temp\ccNuqD00.s 			page 4


  81              		.loc 1 82 0
  82              		.thumb
  83 001c 4FF00C00 		mov	r0, #12
  84 0020 4FF00101 		mov	r1, #1
  85 0024 41F6FF72 		movw	r2, #8191
  86 0028 41F6FF73 		movw	r3, #8191
  87 002c FFF7FEFF 		bl	DMA_1_DmaInitialize
  88 0030 0346     		mov	r3, r0
  89 0032 1A46     		mov	r2, r3
  90 0034 40F20003 		movw	r3, #:lower16:DMA_1_Chan
  91 0038 C0F20003 		movt	r3, #:upper16:DMA_1_Chan
  92 003c 1A70     		strb	r2, [r3, #0]
  83:.\main.c      ****                                      HI16(DMA_SRC_BASE),  HI16(DMA_DST_BASE));
  84:.\main.c      **** 
  85:.\main.c      **** 	/* Allocate a TD for each channel */
  86:.\main.c      **** 	DMA_1_TD[0] = CyDmaTdAllocate();
  93              		.loc 1 86 0
  94 003e FFF7FEFF 		bl	CyDmaTdAllocate
  95 0042 0346     		mov	r3, r0
  96 0044 1A46     		mov	r2, r3
  97 0046 40F20003 		movw	r3, #:lower16:DMA_1_TD
  98 004a C0F20003 		movt	r3, #:upper16:DMA_1_TD
  99 004e 1A70     		strb	r2, [r3, #0]
  87:.\main.c      **** 	
  88:.\main.c      **** 	//step through and setup each TD
  89:.\main.c      **** 	CyDmaTdSetConfiguration(DMA_1_TD[0], 
 100              		.loc 1 89 0
 101 0050 40F20003 		movw	r3, #:lower16:DMA_1_TD
 102 0054 C0F20003 		movt	r3, #:upper16:DMA_1_TD
 103 0058 1B78     		ldrb	r3, [r3, #0]	@ zero_extendqisi2
 104 005a 1846     		mov	r0, r3
 105 005c 4FF00C01 		mov	r1, #12
 106 0060 4FF0FE02 		mov	r2, #254
 107 0064 4FF00203 		mov	r3, #2
 108 0068 FFF7FEFF 		bl	CyDmaTdSetConfiguration
  90:.\main.c      **** 							DMA_BYTES_PER_BURST,
  91:.\main.c      **** 							DMA_DISABLE_TD,
  92:.\main.c      **** 							DMA_1__TD_TERMOUT_EN | CY_DMA_TD_INC_DST_ADR );
  93:.\main.c      ****     
  94:.\main.c      ****     /* Configuring the TD address for the transfer. Sequencer ADC results are stored in ADC_SAR_Seq
  95:.\main.c      ****     CyDmaTdSetAddress(DMA_1_TD[0], LO16((uint32)(ADC_SAR_Seq_1_finalArray)), LO16((uint32)(DMAADCRe
 109              		.loc 1 95 0
 110 006c 40F20003 		movw	r3, #:lower16:DMA_1_TD
 111 0070 C0F20003 		movt	r3, #:upper16:DMA_1_TD
 112 0074 1978     		ldrb	r1, [r3, #0]	@ zero_extendqisi2
 113 0076 40F20003 		movw	r3, #:lower16:ADC_SAR_Seq_1_finalArray
 114 007a C0F20003 		movt	r3, #:upper16:ADC_SAR_Seq_1_finalArray
 115 007e 9AB2     		uxth	r2, r3
 116 0080 40F20003 		movw	r3, #:lower16:DMAADCResultArray
 117 0084 C0F20003 		movt	r3, #:upper16:DMAADCResultArray
 118 0088 9BB2     		uxth	r3, r3
 119 008a 0846     		mov	r0, r1
 120 008c 1146     		mov	r1, r2
 121 008e 1A46     		mov	r2, r3
 122 0090 FFF7FEFF 		bl	CyDmaTdSetAddress
  96:.\main.c      ****     
  97:.\main.c      ****     /* Setting initial TD */
ARM GAS  C:\Users\Jerald\AppData\Local\Temp\ccNuqD00.s 			page 5


  98:.\main.c      ****     CyDmaChSetInitialTd(DMA_1_Chan, DMA_1_TD[0]);
 123              		.loc 1 98 0
 124 0094 40F20003 		movw	r3, #:lower16:DMA_1_Chan
 125 0098 C0F20003 		movt	r3, #:upper16:DMA_1_Chan
 126 009c 1A78     		ldrb	r2, [r3, #0]	@ zero_extendqisi2
 127 009e 40F20003 		movw	r3, #:lower16:DMA_1_TD
 128 00a2 C0F20003 		movt	r3, #:upper16:DMA_1_TD
 129 00a6 1B78     		ldrb	r3, [r3, #0]	@ zero_extendqisi2
 130 00a8 1046     		mov	r0, r2
 131 00aa 1946     		mov	r1, r3
 132 00ac FFF7FEFF 		bl	CyDmaChSetInitialTd
  99:.\main.c      **** 
 100:.\main.c      **** 	//////////////////////////
 101:.\main.c      **** 	// Start Components
 102:.\main.c      **** 	//////////////////////////
 103:.\main.c      **** 	
 104:.\main.c      **** 	/* ISR Start */
 105:.\main.c      **** 	isr_1_Start();
 133              		.loc 1 105 0
 134 00b0 FFF7FEFF 		bl	isr_1_Start
 106:.\main.c      ****     // isr_1_StartEx(isr_1);
 107:.\main.c      ****     LCD_Start();
 135              		.loc 1 107 0
 136 00b4 FFF7FEFF 		bl	LCD_Start
 108:.\main.c      **** 	
 109:.\main.c      ****     /* Enable the DMA channel */
 110:.\main.c      ****     CyDmaChEnable(DMA_1_Chan, 1);
 137              		.loc 1 110 0
 138 00b8 40F20003 		movw	r3, #:lower16:DMA_1_Chan
 139 00bc C0F20003 		movt	r3, #:upper16:DMA_1_Chan
 140 00c0 1B78     		ldrb	r3, [r3, #0]	@ zero_extendqisi2
 141 00c2 1846     		mov	r0, r3
 142 00c4 4FF00101 		mov	r1, #1
 143 00c8 FFF7FEFF 		bl	CyDmaChEnable
 111:.\main.c      **** 
 112:.\main.c      **** 	/* Start the ADC */
 113:.\main.c      ****     ADC_SAR_Seq_1_Start();
 144              		.loc 1 113 0
 145 00cc FFF7FEFF 		bl	ADC_SAR_Seq_1_Start
 114:.\main.c      **** 	ADC_SAR_Seq_1_IRQ_Disable();	//we're not using the internal interrupt
 146              		.loc 1 114 0
 147 00d0 FFF7FEFF 		bl	ADC_SAR_Seq_1_IRQ_Disable
 115:.\main.c      **** 	ADC_SAR_Seq_1_StartConvert();
 148              		.loc 1 115 0
 149 00d4 FFF7FEFF 		bl	ADC_SAR_Seq_1_StartConvert
 116:.\main.c      **** 	CyDelay(1000);	//give the ADC time to settle
 150              		.loc 1 116 0
 151 00d8 4FF47A70 		mov	r0, #1000
 152 00dc FFF7FEFF 		bl	CyDelay
 153 00e0 00E0     		b	.L5
 154              	.L6:
 117:.\main.c      **** 	
 118:.\main.c      ****     for(;;) {
 119:.\main.c      **** 		// Capture the requested data...the DMADone flag will set when complete
 120:.\main.c      **** 		if(DMADone == 1)
 121:.\main.c      **** 		{
 122:.\main.c      **** 			//reset the DMA done flag
ARM GAS  C:\Users\Jerald\AppData\Local\Temp\ccNuqD00.s 			page 6


 123:.\main.c      **** 			DMADone = 0;
 124:.\main.c      ****             ADC_SAR_Seq_1_StopConvert();
 125:.\main.c      **** 			
 126:.\main.c      **** 			//////////////////////////////////////////////////// 
 127:.\main.c      **** 			// Grab the result values manually for comparison:
 128:.\main.c      **** 			////////////////////////////////////////////////////
 129:.\main.c      **** 			
 130:.\main.c      **** 			// USING THE API
 131:.\main.c      **** 			/* Channel results are saved in reverse order in the results array. Store them so they appear in
 132:.\main.c      **** //            if (ADC_SAR_Seq_1_IsEndConversion(ADC_SAR_Seq_1_WAIT_FOR_RESULT))
 133:.\main.c      **** //            {
 134:.\main.c      **** 			for(chan = 0; chan < ADC_SAR_Seq_1_NUMBER_OF_CHANNELS; chan++)
 135:.\main.c      **** 			{
 136:.\main.c      **** 				APIFUNResultArray[chan] = ADC_SAR_Seq_1_GetResult16(ADC_SAR_Seq_1_NUMBER_OF_CHANNELS-chan-1);
 137:.\main.c      **** 			}
 138:.\main.c      **** //            }
 139:.\main.c      **** 
 140:.\main.c      **** 			// USING MEMCPY
 141:.\main.c      **** /*
 142:.\main.c      ****  Jerry says "Why use the following line? We already have the result of the conversion in APIFUNResu
 143:.\main.c      ****     It probably won't work anyway because the sar's finalArray is probably already cleared by the G
 144:.\main.c      **** 			memcpy(MEMCPYResultArray,ADC_SAR_Seq_1_finalArray,ADC_SAR_Seq_1_NUMBER_OF_CHANNELS*sizeof(uint16
 145:.\main.c      ****     INSTEAD, use the following line to move data to a different array.
 146:.\main.c      ****             
 147:.\main.c      ****     NOTE: the ISR HAS BEEN MOVED to the eoc of the SAR. By the time you get to this line of code, t
 148:.\main.c      ****     Now that we have Read the conversion results we have the lesure of doing whatever we want with 
 149:.\main.c      **** */
 150:.\main.c      **** 			memcpy(MEMCPYResultArray, APIFUNResultArray, ADC_SAR_Seq_1_NUMBER_OF_CHANNELS*sizeof(uint16));
 151:.\main.c      ****             
 152:.\main.c      **** //  And if your want, do it again to move it to an offset from the MEMCPYResultArray -- say 12 byte
 153:.\main.c      **** //  That is, move the APIFUNResultArray anywhere you want in SRAM.
 154:.\main.c      **** //  NOTE: We moved all the arrays out of main{} into global variables and removed the "static" clas
 155:.\main.c      **** //       Now they are mapped into high SRAM as you can see in the Results Tab under Mux_SAR_ADC_Tes
 156:.\main.c      ****             
 157:.\main.c      ****                     /* ***  First line of LCD Screen - DO ANYTHING YOU WANT WITH THIS ARRAY  */
 158:.\main.c      ****             LCD_Position(0, 0); CyDelay(10);  LCD_PrintString("               ");
 159:.\main.c      ****             LCD_Position(0, 0);
 160:.\main.c      ****             print_nmbr = MEMCPYResultArray[2];
 161:.\main.c      ****             LCD_PrintNumber(print_nmbr);
 162:.\main.c      ****             LCD_Position(0, 6);
 163:.\main.c      ****             print_nmbr = MEMCPYResultArray[3];
 164:.\main.c      ****             LCD_PrintNumber(print_nmbr);
 165:.\main.c      ****             LCD_Position(0, 11);
 166:.\main.c      ****             print_nmbr = MEMCPYResultArray[4];
 167:.\main.c      ****             LCD_PrintNumber(print_nmbr);
 168:.\main.c      **** 
 169:.\main.c      ****                     /* ***  Second line of LCD Screen - ANALOG INPUT  */
 170:.\main.c      ****             LCD_Position(1, 0); CyDelay(10);  LCD_PrintString("               ");
 171:.\main.c      ****             LCD_Position(1, 0);
 172:.\main.c      ****             print_nmbr = APIFUNResultArray[2];
 173:.\main.c      ****             LCD_PrintNumber(print_nmbr);
 174:.\main.c      ****             LCD_Position(1, 6);
 175:.\main.c      ****             print_nmbr = APIFUNResultArray[3];
 176:.\main.c      ****             LCD_PrintNumber(print_nmbr);
 177:.\main.c      ****             LCD_Position(1, 11);
 178:.\main.c      ****             print_nmbr = APIFUNResultArray[4]; 
 179:.\main.c      ****             LCD_PrintNumber(print_nmbr);
ARM GAS  C:\Users\Jerald\AppData\Local\Temp\ccNuqD00.s 			page 7


 180:.\main.c      **** 
 181:.\main.c      **** 			
 182:.\main.c      **** 			//////////////////////////////////////////////////////
 183:.\main.c      **** 			// Put a breakpoint at the next line so that the values in
 184:.\main.c      **** 			// the result arrays can be compared.
 185:.\main.c      **** 			//////////////////////////////////////////////////////
 186:.\main.c      **** 			
 187:.\main.c      **** 			/* Enable the DMA channel again */
 188:.\main.c      ****     		CyDmaChEnable(DMA_1_Chan, 1);
 189:.\main.c      ****             ADC_SAR_Seq_1_StartConvert();   // Let's go another round
 190:.\main.c      **** 		}
 191:.\main.c      **** 	}
 155              		.loc 1 191 0
 156 00e2 00BF     		nop
 157              	.L5:
 120:.\main.c      **** 		if(DMADone == 1)
 158              		.loc 1 120 0
 159 00e4 40F20003 		movw	r3, #:lower16:DMADone
 160 00e8 C0F20003 		movt	r3, #:upper16:DMADone
 161 00ec 1B78     		ldrb	r3, [r3, #0]
 162 00ee DBB2     		uxtb	r3, r3
 163 00f0 012B     		cmp	r3, #1
 164 00f2 F6D1     		bne	.L6
 123:.\main.c      **** 			DMADone = 0;
 165              		.loc 1 123 0
 166 00f4 40F20003 		movw	r3, #:lower16:DMADone
 167 00f8 C0F20003 		movt	r3, #:upper16:DMADone
 168 00fc 4FF00002 		mov	r2, #0
 169 0100 1A70     		strb	r2, [r3, #0]
 124:.\main.c      ****             ADC_SAR_Seq_1_StopConvert();
 170              		.loc 1 124 0
 171 0102 FFF7FEFF 		bl	ADC_SAR_Seq_1_StopConvert
 134:.\main.c      **** 			for(chan = 0; chan < ADC_SAR_Seq_1_NUMBER_OF_CHANNELS; chan++)
 172              		.loc 1 134 0
 173 0106 4FF00003 		mov	r3, #0
 174 010a FB80     		strh	r3, [r7, #6]	@ movhi
 175 010c 13E0     		b	.L3
 176              	.L4:
 136:.\main.c      **** 				APIFUNResultArray[chan] = ADC_SAR_Seq_1_GetResult16(ADC_SAR_Seq_1_NUMBER_OF_CHANNELS-chan-1);
 177              		.loc 1 136 0 discriminator 2
 178 010e FC88     		ldrh	r4, [r7, #6]
 179 0110 FB88     		ldrh	r3, [r7, #6]	@ movhi
 180 0112 C3F10503 		rsb	r3, r3, #5
 181 0116 9BB2     		uxth	r3, r3
 182 0118 1846     		mov	r0, r3
 183 011a FFF7FEFF 		bl	ADC_SAR_Seq_1_GetResult16
 184 011e 0346     		mov	r3, r0
 185 0120 1A46     		mov	r2, r3
 186 0122 40F20003 		movw	r3, #:lower16:APIFUNResultArray
 187 0126 C0F20003 		movt	r3, #:upper16:APIFUNResultArray
 188 012a 23F81420 		strh	r2, [r3, r4, lsl #1]	@ movhi
 134:.\main.c      **** 			for(chan = 0; chan < ADC_SAR_Seq_1_NUMBER_OF_CHANNELS; chan++)
 189              		.loc 1 134 0 discriminator 2
 190 012e FB88     		ldrh	r3, [r7, #6]	@ movhi
 191 0130 03F10103 		add	r3, r3, #1
 192 0134 FB80     		strh	r3, [r7, #6]	@ movhi
 193              	.L3:
ARM GAS  C:\Users\Jerald\AppData\Local\Temp\ccNuqD00.s 			page 8


 134:.\main.c      **** 			for(chan = 0; chan < ADC_SAR_Seq_1_NUMBER_OF_CHANNELS; chan++)
 194              		.loc 1 134 0 is_stmt 0 discriminator 1
 195 0136 FB88     		ldrh	r3, [r7, #6]
 196 0138 052B     		cmp	r3, #5
 197 013a E8D9     		bls	.L4
 150:.\main.c      **** 			memcpy(MEMCPYResultArray, APIFUNResultArray, ADC_SAR_Seq_1_NUMBER_OF_CHANNELS*sizeof(uint16));
 198              		.loc 1 150 0 is_stmt 1
 199 013c 40F20002 		movw	r2, #:lower16:MEMCPYResultArray
 200 0140 C0F20002 		movt	r2, #:upper16:MEMCPYResultArray
 201 0144 40F20003 		movw	r3, #:lower16:APIFUNResultArray
 202 0148 C0F20003 		movt	r3, #:upper16:APIFUNResultArray
 203 014c 1446     		mov	r4, r2
 204 014e 93E80700 		ldmia	r3, {r0, r1, r2}
 205 0152 84E80700 		stmia	r4, {r0, r1, r2}
 158:.\main.c      ****             LCD_Position(0, 0); CyDelay(10);  LCD_PrintString("               ");
 206              		.loc 1 158 0
 207 0156 4FF00000 		mov	r0, #0
 208 015a 4FF00001 		mov	r1, #0
 209 015e FFF7FEFF 		bl	LCD_Position
 210 0162 4FF00A00 		mov	r0, #10
 211 0166 FFF7FEFF 		bl	CyDelay
 212 016a 40F20000 		movw	r0, #:lower16:.LC0
 213 016e C0F20000 		movt	r0, #:upper16:.LC0
 214 0172 FFF7FEFF 		bl	LCD_PrintString
 159:.\main.c      ****             LCD_Position(0, 0);
 215              		.loc 1 159 0
 216 0176 4FF00000 		mov	r0, #0
 217 017a 4FF00001 		mov	r1, #0
 218 017e FFF7FEFF 		bl	LCD_Position
 160:.\main.c      ****             print_nmbr = MEMCPYResultArray[2];
 219              		.loc 1 160 0
 220 0182 40F20003 		movw	r3, #:lower16:MEMCPYResultArray
 221 0186 C0F20003 		movt	r3, #:upper16:MEMCPYResultArray
 222 018a 9B88     		ldrh	r3, [r3, #4]
 223 018c BB80     		strh	r3, [r7, #4]	@ movhi
 161:.\main.c      ****             LCD_PrintNumber(print_nmbr);
 224              		.loc 1 161 0
 225 018e BB88     		ldrh	r3, [r7, #4]
 226 0190 1846     		mov	r0, r3
 227 0192 FFF7FEFF 		bl	LCD_PrintU32Number
 162:.\main.c      ****             LCD_Position(0, 6);
 228              		.loc 1 162 0
 229 0196 4FF00000 		mov	r0, #0
 230 019a 4FF00601 		mov	r1, #6
 231 019e FFF7FEFF 		bl	LCD_Position
 163:.\main.c      ****             print_nmbr = MEMCPYResultArray[3];
 232              		.loc 1 163 0
 233 01a2 40F20003 		movw	r3, #:lower16:MEMCPYResultArray
 234 01a6 C0F20003 		movt	r3, #:upper16:MEMCPYResultArray
 235 01aa DB88     		ldrh	r3, [r3, #6]
 236 01ac BB80     		strh	r3, [r7, #4]	@ movhi
 164:.\main.c      ****             LCD_PrintNumber(print_nmbr);
 237              		.loc 1 164 0
 238 01ae BB88     		ldrh	r3, [r7, #4]
 239 01b0 1846     		mov	r0, r3
 240 01b2 FFF7FEFF 		bl	LCD_PrintU32Number
 165:.\main.c      ****             LCD_Position(0, 11);
ARM GAS  C:\Users\Jerald\AppData\Local\Temp\ccNuqD00.s 			page 9


 241              		.loc 1 165 0
 242 01b6 4FF00000 		mov	r0, #0
 243 01ba 4FF00B01 		mov	r1, #11
 244 01be FFF7FEFF 		bl	LCD_Position
 166:.\main.c      ****             print_nmbr = MEMCPYResultArray[4];
 245              		.loc 1 166 0
 246 01c2 40F20003 		movw	r3, #:lower16:MEMCPYResultArray
 247 01c6 C0F20003 		movt	r3, #:upper16:MEMCPYResultArray
 248 01ca 1B89     		ldrh	r3, [r3, #8]
 249 01cc BB80     		strh	r3, [r7, #4]	@ movhi
 167:.\main.c      ****             LCD_PrintNumber(print_nmbr);
 250              		.loc 1 167 0
 251 01ce BB88     		ldrh	r3, [r7, #4]
 252 01d0 1846     		mov	r0, r3
 253 01d2 FFF7FEFF 		bl	LCD_PrintU32Number
 170:.\main.c      ****             LCD_Position(1, 0); CyDelay(10);  LCD_PrintString("               ");
 254              		.loc 1 170 0
 255 01d6 4FF00100 		mov	r0, #1
 256 01da 4FF00001 		mov	r1, #0
 257 01de FFF7FEFF 		bl	LCD_Position
 258 01e2 4FF00A00 		mov	r0, #10
 259 01e6 FFF7FEFF 		bl	CyDelay
 260 01ea 40F20000 		movw	r0, #:lower16:.LC0
 261 01ee C0F20000 		movt	r0, #:upper16:.LC0
 262 01f2 FFF7FEFF 		bl	LCD_PrintString
 171:.\main.c      ****             LCD_Position(1, 0);
 263              		.loc 1 171 0
 264 01f6 4FF00100 		mov	r0, #1
 265 01fa 4FF00001 		mov	r1, #0
 266 01fe FFF7FEFF 		bl	LCD_Position
 172:.\main.c      ****             print_nmbr = APIFUNResultArray[2];
 267              		.loc 1 172 0
 268 0202 40F20003 		movw	r3, #:lower16:APIFUNResultArray
 269 0206 C0F20003 		movt	r3, #:upper16:APIFUNResultArray
 270 020a 9B88     		ldrh	r3, [r3, #4]
 271 020c BB80     		strh	r3, [r7, #4]	@ movhi
 173:.\main.c      ****             LCD_PrintNumber(print_nmbr);
 272              		.loc 1 173 0
 273 020e BB88     		ldrh	r3, [r7, #4]
 274 0210 1846     		mov	r0, r3
 275 0212 FFF7FEFF 		bl	LCD_PrintU32Number
 174:.\main.c      ****             LCD_Position(1, 6);
 276              		.loc 1 174 0
 277 0216 4FF00100 		mov	r0, #1
 278 021a 4FF00601 		mov	r1, #6
 279 021e FFF7FEFF 		bl	LCD_Position
 175:.\main.c      ****             print_nmbr = APIFUNResultArray[3];
 280              		.loc 1 175 0
 281 0222 40F20003 		movw	r3, #:lower16:APIFUNResultArray
 282 0226 C0F20003 		movt	r3, #:upper16:APIFUNResultArray
 283 022a DB88     		ldrh	r3, [r3, #6]
 284 022c BB80     		strh	r3, [r7, #4]	@ movhi
 176:.\main.c      ****             LCD_PrintNumber(print_nmbr);
 285              		.loc 1 176 0
 286 022e BB88     		ldrh	r3, [r7, #4]
 287 0230 1846     		mov	r0, r3
 288 0232 FFF7FEFF 		bl	LCD_PrintU32Number
ARM GAS  C:\Users\Jerald\AppData\Local\Temp\ccNuqD00.s 			page 10


 177:.\main.c      ****             LCD_Position(1, 11);
 289              		.loc 1 177 0
 290 0236 4FF00100 		mov	r0, #1
 291 023a 4FF00B01 		mov	r1, #11
 292 023e FFF7FEFF 		bl	LCD_Position
 178:.\main.c      ****             print_nmbr = APIFUNResultArray[4]; 
 293              		.loc 1 178 0
 294 0242 40F20003 		movw	r3, #:lower16:APIFUNResultArray
 295 0246 C0F20003 		movt	r3, #:upper16:APIFUNResultArray
 296 024a 1B89     		ldrh	r3, [r3, #8]
 297 024c BB80     		strh	r3, [r7, #4]	@ movhi
 179:.\main.c      ****             LCD_PrintNumber(print_nmbr);
 298              		.loc 1 179 0
 299 024e BB88     		ldrh	r3, [r7, #4]
 300 0250 1846     		mov	r0, r3
 301 0252 FFF7FEFF 		bl	LCD_PrintU32Number
 188:.\main.c      ****     		CyDmaChEnable(DMA_1_Chan, 1);
 302              		.loc 1 188 0
 303 0256 40F20003 		movw	r3, #:lower16:DMA_1_Chan
 304 025a C0F20003 		movt	r3, #:upper16:DMA_1_Chan
 305 025e 1B78     		ldrb	r3, [r3, #0]	@ zero_extendqisi2
 306 0260 1846     		mov	r0, r3
 307 0262 4FF00101 		mov	r1, #1
 308 0266 FFF7FEFF 		bl	CyDmaChEnable
 189:.\main.c      ****             ADC_SAR_Seq_1_StartConvert();   // Let's go another round
 309              		.loc 1 189 0
 310 026a FFF7FEFF 		bl	ADC_SAR_Seq_1_StartConvert
 311              		.loc 1 191 0
 312 026e 38E7     		b	.L6
 313              		.cfi_endproc
 314              	.LFE56:
 315              		.size	main, .-main
 316              		.text
 317              	.Letext0:
 318              		.file 2 "c:\\program files (x86)\\cypress\\psoc creator\\3.0\\psoc creator\\import\\gnu_cs\\arm\\4
 319              		.file 3 "./Generated_Source/PSoC5/cytypes.h"
 320              		.file 4 "./Generated_Source/PSoC5/ADC_SAR_Seq_1.h"
 321              		.file 5 "./Generated_Source/PSoC5/core_cm3.h"